; Function Attrs: mustprogress nofree norecurse nosync nounwind willreturn memory(read, inaccessiblemem: none) uwtable
define hidden noundef i32 @_ZN2os5Linux15get_node_by_cpuEi(i32 noundef %0) local_unnamed_addr #16 align 2 {
  %2 = load ptr, ptr @_ZN2os5Linux12_cpu_to_nodeE, align 8
  %3 = icmp ne ptr %2, null
  %4 = icmp sgt i32 %0, -1
  %or.cond = and i1 %4, %3
  br i1 %or.cond, label %5, label %14

5:                                                ; preds = %1
  %6 = load i32, ptr %2, align 4
  %7 = icmp sgt i32 %6, %0
  br i1 %7, label %8, label %14

8:                                                ; preds = %5
  %9 = getelementptr inbounds i8, ptr %2, i64 8
  %10 = load ptr, ptr %9, align 8
  %11 = zext nneg i32 %0 to i64
  %12 = getelementptr inbounds i32, ptr %10, i64 %11
  %13 = load i32, ptr %12, align 4
  br label %14

14:                                               ; preds = %1, %5, %8
  %.0 = phi i32 [ %13, %8 ], [ -1, %5 ], [ -1, %1 ]
  ret i32 %.0
}